target datalayout = "e-m:e-p270:32:32-p271:32:32-p272:64:64-i64:64-i128:128-f80:128-n8:16:32:64-S128"
target triple = "x86_64-pc-linux-gnu"

; Function Attrs: mustprogress uwtable
define internal noundef zeroext i1 @_ZN12_GLOBAL__N_121_isAlphaNumericStringEPKci(ptr noundef %0, i32 noundef %1) #1 {
  %3 = alloca i1, align 1
  %4 = alloca ptr, align 8
  %5 = alloca i32, align 4
  %6 = alloca i32, align 4
  %7 = alloca i32, align 4
  store ptr %0, ptr %4, align 8, !tbaa !17
  store i32 %1, ptr %5, align 4, !tbaa !14
  call void @llvm.lifetime.start.p0(i64 4, ptr %6) #12
  store i32 0, ptr %6, align 4, !tbaa !14
  br label %8

8:                                                ; preds = %29, %2
  %9 = load i32, ptr %6, align 4, !tbaa !14
  %10 = load i32, ptr %5, align 4, !tbaa !14
  %11 = icmp slt i32 %9, %10
  br i1 %11, label %12, label %32

12:                                               ; preds = %8
  %13 = load ptr, ptr %4, align 8, !tbaa !17
  %14 = load i32, ptr %6, align 4, !tbaa !14
  %15 = sext i32 %14 to i64
  %16 = getelementptr inbounds i8, ptr %13, i64 %15
  %17 = load i8, ptr %16, align 1, !tbaa !23
  %18 = call noundef signext i8 @uprv_isASCIILetter_77(i8 noundef signext %17)
  %19 = icmp ne i8 %18, 0
  br i1 %19, label %28, label %20

20:                                               ; preds = %12
  %21 = load ptr, ptr %4, align 8, !tbaa !17
  %22 = load i32, ptr %6, align 4, !tbaa !14
  %23 = sext i32 %22 to i64
  %24 = getelementptr inbounds i8, ptr %21, i64 %23
  %25 = load i8, ptr %24, align 1, !tbaa !23
  %26 = call noundef zeroext i1 @_ZN12_GLOBAL__N_19ISNUMERICEc(i8 noundef signext %25)
  br i1 %26, label %28, label %27

27:                                               ; preds = %20
  store i1 false, ptr %3, align 1
  store i32 1, ptr %7, align 4
  br label %33

28:                                               ; preds = %20, %12
  br label %29

29:                                               ; preds = %28
  %30 = load i32, ptr %6, align 4, !tbaa !14
  %31 = add nsw i32 %30, 1
  store i32 %31, ptr %6, align 4, !tbaa !14
  br label %8, !llvm.loop !130

32:                                               ; preds = %8
  store i1 true, ptr %3, align 1
  store i32 1, ptr %7, align 4
  br label %33

33:                                               ; preds = %32, %27
  call void @llvm.lifetime.end.p0(i64 4, ptr %6) #12
  %34 = load i1, ptr %3, align 1
  ret i1 %34
}

; Function Attrs: mustprogress uwtable
define internal noundef zeroext i1 @_ZN12_GLOBAL__N_134_isAlphaNumericStringLimitedLengthEPKciii(ptr noundef %0, i32 noundef %1, i32 noundef %2, i32 noundef %3) #1 {
  %5 = alloca i1, align 1
  %6 = alloca ptr, align 8
  %7 = alloca i32, align 4
  %8 = alloca i32, align 4
  %9 = alloca i32, align 4
  store ptr %0, ptr %6, align 8, !tbaa !17
  store i32 %1, ptr %7, align 4, !tbaa !14
  store i32 %2, ptr %8, align 4, !tbaa !14
  store i32 %3, ptr %9, align 4, !tbaa !14
  %10 = load i32, ptr %7, align 4, !tbaa !14
  %11 = icmp slt i32 %10, 0
  br i1 %11, label %12, label %16

12:                                               ; preds = %4
  %13 = load ptr, ptr %6, align 8, !tbaa !17
  %14 = call i64 @strlen(ptr noundef %13) #15
  %15 = trunc i64 %14 to i32
  store i32 %15, ptr %7, align 4, !tbaa !14
  br label %16

16:                                               ; preds = %12, %4
  %17 = load i32, ptr %7, align 4, !tbaa !14
  %18 = load i32, ptr %8, align 4, !tbaa !14
  %19 = icmp sge i32 %17, %18
  br i1 %19, label %20, label %29

20:                                               ; preds = %16
  %21 = load i32, ptr %7, align 4, !tbaa !14
  %22 = load i32, ptr %9, align 4, !tbaa !14
  %23 = icmp sle i32 %21, %22
  br i1 %23, label %24, label %29

24:                                               ; preds = %20
  %25 = load ptr, ptr %6, align 8, !tbaa !17
  %26 = load i32, ptr %7, align 4, !tbaa !14
  %27 = call noundef zeroext i1 @_ZN12_GLOBAL__N_121_isAlphaNumericStringEPKci(ptr noundef %25, i32 noundef %26)
  br i1 %27, label %28, label %29

28:                                               ; preds = %24
  store i1 true, ptr %5, align 1
  br label %30

29:                                               ; preds = %24, %20, %16
  store i1 false, ptr %5, align 1
  br label %30

30:                                               ; preds = %29, %28
  %31 = load i1, ptr %5, align 1
  ret i1 %31
}

; Function Attrs: inlinehint mustprogress nounwind uwtable
define internal noundef zeroext i1 @_ZN12_GLOBAL__N_19ISNUMERICEc(i8 noundef signext %0) #2 {
  %2 = alloca i8, align 1
  store i8 %0, ptr %2, align 1, !tbaa !23
  %3 = load i8, ptr %2, align 1, !tbaa !23
  %4 = sext i8 %3 to i32
  %5 = icmp sge i32 %4, 48
  br i1 %5, label %6, label %10

6:                                                ; preds = %1
  %7 = load i8, ptr %2, align 1, !tbaa !23
  %8 = sext i8 %7 to i32
  %9 = icmp sle i32 %8, 57
  br label %10

10:                                               ; preds = %6, %1
  %11 = phi i1 [ false, %1 ], [ %9, %6 ]
  ret i1 %11
}

; Function Attrs: mustprogress uwtable
define noundef zeroext i1 @_Z29_isUnicodeLocaleTypeSubtag_77PKci(ptr noundef %0, i32 noundef %1) #1 {
  %3 = alloca ptr, align 8
  %4 = alloca i32, align 4
  store ptr %0, ptr %3, align 8, !tbaa !17
  store i32 %1, ptr %4, align 4, !tbaa !14
  %5 = load ptr, ptr %3, align 8, !tbaa !17
  %6 = load i32, ptr %4, align 4, !tbaa !14
  %7 = call noundef zeroext i1 @_ZN12_GLOBAL__N_134_isAlphaNumericStringLimitedLengthEPKciii(ptr noundef %5, i32 noundef %6, i32 noundef 3, i32 noundef 8)
  ret i1 %7
}

; Function Attrs: mustprogress uwtable
define noundef zeroext i1 @_Z33ultag_isUnicodeLocaleAttribute_77PKci(ptr noundef %0, i32 noundef %1) #1 {
  %3 = alloca ptr, align 8
  %4 = alloca i32, align 4
  store ptr %0, ptr %3, align 8, !tbaa !17
  store i32 %1, ptr %4, align 4, !tbaa !14
  %5 = load ptr, ptr %3, align 8, !tbaa !17
  %6 = load i32, ptr %4, align 4, !tbaa !14
  %7 = call noundef zeroext i1 @_ZN12_GLOBAL__N_134_isAlphaNumericStringLimitedLengthEPKciii(ptr noundef %5, i32 noundef %6, i32 noundef 3, i32 noundef 8)
  ret i1 %7
}

; Function Attrs: mustprogress uwtable
define noundef zeroext i1 @_Z27ultag_isUnicodeLocaleKey_77PKci(ptr noundef %0, i32 noundef %1) #1 {
  %3 = alloca i1, align 1
  %4 = alloca ptr, align 8
  %5 = alloca i32, align 4
  store ptr %0, ptr %4, align 8, !tbaa !17
  store i32 %1, ptr %5, align 4, !tbaa !14
  %6 = load i32, ptr %5, align 4, !tbaa !14
  %7 = icmp slt i32 %6, 0
  br i1 %7, label %8, label %12

8:                                                ; preds = %2
  %9 = load ptr, ptr %4, align 8, !tbaa !17
  %10 = call i64 @strlen(ptr noundef %9) #15
  %11 = trunc i64 %10 to i32
  store i32 %11, ptr %5, align 4, !tbaa !14
  br label %12

12:                                               ; preds = %8, %2
  %13 = load i32, ptr %5, align 4, !tbaa !14
  %14 = icmp eq i32 %13, 2
  br i1 %14, label %15, label %31

15:                                               ; preds = %12
  %16 = load ptr, ptr %4, align 8, !tbaa !17
  %17 = load i8, ptr %16, align 1, !tbaa !23
  %18 = call noundef signext i8 @uprv_isASCIILetter_77(i8 noundef signext %17)
  %19 = icmp ne i8 %18, 0
  br i1 %19, label %24, label %20

20:                                               ; preds = %15
  %21 = load ptr, ptr %4, align 8, !tbaa !17
  %22 = load i8, ptr %21, align 1, !tbaa !23
  %23 = call noundef zeroext i1 @_ZN12_GLOBAL__N_19ISNUMERICEc(i8 noundef signext %22)
  br i1 %23, label %24, label %31

24:                                               ; preds = %20, %15
  %25 = load ptr, ptr %4, align 8, !tbaa !17
  %26 = getelementptr inbounds i8, ptr %25, i64 1
  %27 = load i8, ptr %26, align 1, !tbaa !23
  %28 = call noundef signext i8 @uprv_isASCIILetter_77(i8 noundef signext %27)
  %29 = icmp ne i8 %28, 0
  br i1 %29, label %30, label %31

30:                                               ; preds = %24
  store i1 true, ptr %3, align 1
  br label %32

31:                                               ; preds = %24, %20, %12
  store i1 false, ptr %3, align 1
  br label %32

32:                                               ; preds = %31, %30
  %33 = load i1, ptr %3, align 1
  ret i1 %33
}

; Function Attrs: mustprogress uwtable
define internal noundef zeroext i1 @_ZN12_GLOBAL__N_125_isUnicodeExtensionSubtagERiPKci(ptr noundef nonnull align 4 dereferenceable(4) %0, ptr noundef %1, i32 noundef %2) #1 {
  %4 = alloca i1, align 1
  %5 = alloca ptr, align 8
  %6 = alloca ptr, align 8
  %7 = alloca i32, align 4
  %8 = alloca i32, align 4
  %9 = alloca i32, align 4
  %10 = alloca i32, align 4
  %11 = alloca i32, align 4
  store ptr %0, ptr %5, align 8, !tbaa !20
  store ptr %1, ptr %6, align 8, !tbaa !17
  store i32 %2, ptr %7, align 4, !tbaa !14
  call void @llvm.lifetime.start.p0(i64 4, ptr %8) #12
  store i32 0, ptr %8, align 4, !tbaa !14
  call void @llvm.lifetime.start.p0(i64 4, ptr %9) #12
  store i32 1, ptr %9, align 4, !tbaa !14
  call void @llvm.lifetime.start.p0(i64 4, ptr %10) #12
  store i32 2, ptr %10, align 4, !tbaa !14
  %12 = load ptr, ptr %5, align 8, !tbaa !20
  %13 = load i32, ptr %12, align 4, !tbaa !14
  switch i32 %13, label %50 [
    i32 0, label %14
    i32 1, label %26
    i32 2, label %38
  ]

14:                                               ; preds = %3
  %15 = load ptr, ptr %6, align 8, !tbaa !17
  %16 = load i32, ptr %7, align 4, !tbaa !14
  %17 = call noundef zeroext i1 @_Z27ultag_isUnicodeLocaleKey_77PKci(ptr noundef %15, i32 noundef %16)
  br i1 %17, label %18, label %20

18:                                               ; preds = %14
  %19 = load ptr, ptr %5, align 8, !tbaa !20
  store i32 1, ptr %19, align 4, !tbaa !14
  store i1 true, ptr %4, align 1
  store i32 1, ptr %11, align 4
  br label %51

20:                                               ; preds = %14
  %21 = load ptr, ptr %6, align 8, !tbaa !17
  %22 = load i32, ptr %7, align 4, !tbaa !14
  %23 = call noundef zeroext i1 @_Z33ultag_isUnicodeLocaleAttribute_77PKci(ptr noundef %21, i32 noundef %22)
  br i1 %23, label %24, label %25

24:                                               ; preds = %20
  store i1 true, ptr %4, align 1
  store i32 1, ptr %11, align 4
  br label %51

25:                                               ; preds = %20
  store i1 false, ptr %4, align 1
  store i32 1, ptr %11, align 4
  br label %51

26:                                               ; preds = %3
  %27 = load ptr, ptr %6, align 8, !tbaa !17
  %28 = load i32, ptr %7, align 4, !tbaa !14
  %29 = call noundef zeroext i1 @_Z27ultag_isUnicodeLocaleKey_77PKci(ptr noundef %27, i32 noundef %28)
  br i1 %29, label %30, label %31

30:                                               ; preds = %26
  store i1 true, ptr %4, align 1
  store i32 1, ptr %11, align 4
  br label %51

31:                                               ; preds = %26
  %32 = load ptr, ptr %6, align 8, !tbaa !17
  %33 = load i32, ptr %7, align 4, !tbaa !14
  %34 = call noundef zeroext i1 @_Z29_isUnicodeLocaleTypeSubtag_77PKci(ptr noundef %32, i32 noundef %33)
  br i1 %34, label %35, label %37

35:                                               ; preds = %31
  %36 = load ptr, ptr %5, align 8, !tbaa !20
  store i32 2, ptr %36, align 4, !tbaa !14
  store i1 true, ptr %4, align 1
  store i32 1, ptr %11, align 4
  br label %51

37:                                               ; preds = %31
  store i1 false, ptr %4, align 1
  store i32 1, ptr %11, align 4
  br label %51

38:                                               ; preds = %3
  %39 = load ptr, ptr %6, align 8, !tbaa !17
  %40 = load i32, ptr %7, align 4, !tbaa !14
  %41 = call noundef zeroext i1 @_Z27ultag_isUnicodeLocaleKey_77PKci(ptr noundef %39, i32 noundef %40)
  br i1 %41, label %42, label %44

42:                                               ; preds = %38
  %43 = load ptr, ptr %5, align 8, !tbaa !20
  store i32 1, ptr %43, align 4, !tbaa !14
  store i1 true, ptr %4, align 1
  store i32 1, ptr %11, align 4
  br label %51

44:                                               ; preds = %38
  %45 = load ptr, ptr %6, align 8, !tbaa !17
  %46 = load i32, ptr %7, align 4, !tbaa !14
  %47 = call noundef zeroext i1 @_Z29_isUnicodeLocaleTypeSubtag_77PKci(ptr noundef %45, i32 noundef %46)
  br i1 %47, label %48, label %49

48:                                               ; preds = %44
  store i1 true, ptr %4, align 1
  store i32 1, ptr %11, align 4
  br label %51

49:                                               ; preds = %44
  store i1 false, ptr %4, align 1
  store i32 1, ptr %11, align 4
  br label %51

50:                                               ; preds = %3
  store i1 false, ptr %4, align 1
  store i32 1, ptr %11, align 4
  br label %51

51:                                               ; preds = %50, %49, %48, %42, %37, %35, %30, %25, %24, %18
  call void @llvm.lifetime.end.p0(i64 4, ptr %10) #12
  call void @llvm.lifetime.end.p0(i64 4, ptr %9) #12
  call void @llvm.lifetime.end.p0(i64 4, ptr %8) #12
  %52 = load i1, ptr %4, align 1
  ret i1 %52
}