; Function Attrs: mustprogress uwtable
define internal fastcc noundef zeroext i1 @_ZN12_GLOBAL__N_125_isUnicodeExtensionSubtagERiPKci(ptr noundef nonnull align 4 captures(none) dereferenceable(4) %0, ptr noundef readonly captures(none) %1, i32 noundef %2) unnamed_addr #1 {
  %4 = load i32, ptr %0, align 4, !tbaa !12
  switch i32 %4, label %_Z33ultag_isUnicodeLocaleAttribute_77PKci.exit [
    i32 0, label %5
    i32 1, label %38
    i32 2, label %71
  ]

5:                                                ; preds = %3
  %6 = icmp slt i32 %2, 0
  br i1 %6, label %7, label %10

7:                                                ; preds = %5
  %8 = tail call i64 @strlen(ptr noundef nonnull readonly dereferenceable(1) %1) #20
  %9 = trunc i64 %8 to i32
  br label %10

10:                                               ; preds = %7, %5
  %.0.i = phi i32 [ %9, %7 ], [ %2, %5 ]
  %11 = icmp eq i32 %.0.i, 2
  br i1 %11, label %12, label %_Z27ultag_isUnicodeLocaleKey_77PKci.exit

12:                                               ; preds = %10
  %13 = load i8, ptr %1, align 1, !tbaa !15
  %14 = tail call noundef signext i8 @uprv_isASCIILetter_77(i8 noundef signext %13)
  %.not.i = icmp eq i8 %14, 0
  br i1 %.not.i, label %15, label %19

15:                                               ; preds = %12
  %16 = load i8, ptr %1, align 1, !tbaa !15
  %17 = add i8 %16, -48
  %18 = icmp ult i8 %17, 10
  br i1 %18, label %19, label %_Z27ultag_isUnicodeLocaleKey_77PKci.exit

19:                                               ; preds = %15, %12
  %20 = getelementptr inbounds nuw i8, ptr %1, i64 1
  %21 = load i8, ptr %20, align 1, !tbaa !15
  %22 = tail call noundef signext i8 @uprv_isASCIILetter_77(i8 noundef signext %21)
  %.not8.i = icmp eq i8 %22, 0
  br i1 %.not8.i, label %_Z27ultag_isUnicodeLocaleKey_77PKci.exit, label %_Z33ultag_isUnicodeLocaleAttribute_77PKci.exit.sink.split

_Z27ultag_isUnicodeLocaleKey_77PKci.exit:         ; preds = %19, %15, %10
  br i1 %6, label %23, label %26

23:                                               ; preds = %_Z27ultag_isUnicodeLocaleKey_77PKci.exit
  %24 = tail call i64 @strlen(ptr noundef nonnull readonly dereferenceable(1) %1) #20
  %25 = trunc i64 %24 to i32
  br label %26

26:                                               ; preds = %23, %_Z27ultag_isUnicodeLocaleKey_77PKci.exit
  %.08.i.i = phi i32 [ %25, %23 ], [ %2, %_Z27ultag_isUnicodeLocaleKey_77PKci.exit ]
  %27 = add i32 %.08.i.i, -3
  %or.cond.i.i = icmp ult i32 %27, 6
  br i1 %or.cond.i.i, label %28, label %_Z33ultag_isUnicodeLocaleAttribute_77PKci.exit

28:                                               ; preds = %26
  %wide.trip.count.i.i.i = zext nneg i32 %.08.i.i to i64
  br label %29

29:                                               ; preds = %37, %28
  %indvars.iv.i.i.i = phi i64 [ 0, %28 ], [ %indvars.iv.next.i.i.i, %37 ]
  %30 = getelementptr inbounds nuw i8, ptr %1, i64 %indvars.iv.i.i.i
  %31 = load i8, ptr %30, align 1, !tbaa !15
  %32 = tail call noundef signext i8 @uprv_isASCIILetter_77(i8 noundef signext %31)
  %.not.i.i.i = icmp eq i8 %32, 0
  br i1 %.not.i.i.i, label %33, label %37

33:                                               ; preds = %29
  %34 = load i8, ptr %30, align 1, !tbaa !15
  %35 = add i8 %34, -48
  %36 = icmp ult i8 %35, 10
  br i1 %36, label %37, label %_Z33ultag_isUnicodeLocaleAttribute_77PKci.exit

37:                                               ; preds = %33, %29
  %indvars.iv.next.i.i.i = add nuw nsw i64 %indvars.iv.i.i.i, 1
  %exitcond.not.i.i.i = icmp eq i64 %indvars.iv.next.i.i.i, %wide.trip.count.i.i.i
  br i1 %exitcond.not.i.i.i, label %_Z33ultag_isUnicodeLocaleAttribute_77PKci.exit, label %29, !llvm.loop !20

38:                                               ; preds = %3
  %39 = icmp slt i32 %2, 0
  br i1 %39, label %40, label %43

40:                                               ; preds = %38
  %41 = tail call i64 @strlen(ptr noundef nonnull readonly dereferenceable(1) %1) #20
  %42 = trunc i64 %41 to i32
  br label %43

43:                                               ; preds = %40, %38
  %.0.i17 = phi i32 [ %42, %40 ], [ %2, %38 ]
  %44 = icmp eq i32 %.0.i17, 2
  br i1 %44, label %45, label %_Z27ultag_isUnicodeLocaleKey_77PKci.exit21

45:                                               ; preds = %43
  %46 = load i8, ptr %1, align 1, !tbaa !15
  %47 = tail call noundef signext i8 @uprv_isASCIILetter_77(i8 noundef signext %46)
  %.not.i19 = icmp eq i8 %47, 0
  br i1 %.not.i19, label %48, label %52

48:                                               ; preds = %45
  %49 = load i8, ptr %1, align 1, !tbaa !15
  %50 = add i8 %49, -48
  %51 = icmp ult i8 %50, 10
  br i1 %51, label %52, label %_Z27ultag_isUnicodeLocaleKey_77PKci.exit21

52:                                               ; preds = %48, %45
  %53 = getelementptr inbounds nuw i8, ptr %1, i64 1
  %54 = load i8, ptr %53, align 1, !tbaa !15
  %55 = tail call noundef signext i8 @uprv_isASCIILetter_77(i8 noundef signext %54)
  %.not8.i20 = icmp eq i8 %55, 0
  br i1 %.not8.i20, label %_Z27ultag_isUnicodeLocaleKey_77PKci.exit21, label %_Z33ultag_isUnicodeLocaleAttribute_77PKci.exit

_Z27ultag_isUnicodeLocaleKey_77PKci.exit21:       ; preds = %52, %48, %43
  br i1 %39, label %56, label %59

56:                                               ; preds = %_Z27ultag_isUnicodeLocaleKey_77PKci.exit21
  %57 = tail call i64 @strlen(ptr noundef nonnull readonly dereferenceable(1) %1) #20
  %58 = trunc i64 %57 to i32
  br label %59

59:                                               ; preds = %56, %_Z27ultag_isUnicodeLocaleKey_77PKci.exit21
  %.08.i.i22 = phi i32 [ %58, %56 ], [ %2, %_Z27ultag_isUnicodeLocaleKey_77PKci.exit21 ]
  %60 = add i32 %.08.i.i22, -3
  %or.cond.i.i23 = icmp ult i32 %60, 6
  br i1 %or.cond.i.i23, label %61, label %_Z33ultag_isUnicodeLocaleAttribute_77PKci.exit

61:                                               ; preds = %59
  %wide.trip.count.i.i.i25 = zext nneg i32 %.08.i.i22 to i64
  br label %62

62:                                               ; preds = %70, %61
  %indvars.iv.i.i.i26 = phi i64 [ 0, %61 ], [ %indvars.iv.next.i.i.i28, %70 ]
  %63 = getelementptr inbounds nuw i8, ptr %1, i64 %indvars.iv.i.i.i26
  %64 = load i8, ptr %63, align 1, !tbaa !15
  %65 = tail call noundef signext i8 @uprv_isASCIILetter_77(i8 noundef signext %64)
  %.not.i.i.i27 = icmp eq i8 %65, 0
  br i1 %.not.i.i.i27, label %66, label %70

66:                                               ; preds = %62
  %67 = load i8, ptr %63, align 1, !tbaa !15
  %68 = add i8 %67, -48
  %69 = icmp ult i8 %68, 10
  br i1 %69, label %70, label %_Z33ultag_isUnicodeLocaleAttribute_77PKci.exit

70:                                               ; preds = %66, %62
  %indvars.iv.next.i.i.i28 = add nuw nsw i64 %indvars.iv.i.i.i26, 1
  %exitcond.not.i.i.i29 = icmp eq i64 %indvars.iv.next.i.i.i28, %wide.trip.count.i.i.i25
  br i1 %exitcond.not.i.i.i29, label %_Z33ultag_isUnicodeLocaleAttribute_77PKci.exit.sink.split, label %62, !llvm.loop !20

71:                                               ; preds = %3
  %72 = icmp slt i32 %2, 0
  br i1 %72, label %73, label %76

73:                                               ; preds = %71
  %74 = tail call i64 @strlen(ptr noundef nonnull readonly dereferenceable(1) %1) #20
  %75 = trunc i64 %74 to i32
  br label %76

76:                                               ; preds = %73, %71
  %.0.i30 = phi i32 [ %75, %73 ], [ %2, %71 ]
  %77 = icmp eq i32 %.0.i30, 2
  br i1 %77, label %78, label %_Z27ultag_isUnicodeLocaleKey_77PKci.exit34

78:                                               ; preds = %76
  %79 = load i8, ptr %1, align 1, !tbaa !15
  %80 = tail call noundef signext i8 @uprv_isASCIILetter_77(i8 noundef signext %79)
  %.not.i32 = icmp eq i8 %80, 0
  br i1 %.not.i32, label %81, label %85

81:                                               ; preds = %78
  %82 = load i8, ptr %1, align 1, !tbaa !15
  %83 = add i8 %82, -48
  %84 = icmp ult i8 %83, 10
  br i1 %84, label %85, label %_Z27ultag_isUnicodeLocaleKey_77PKci.exit34

85:                                               ; preds = %81, %78
  %86 = getelementptr inbounds nuw i8, ptr %1, i64 1
  %87 = load i8, ptr %86, align 1, !tbaa !15
  %88 = tail call noundef signext i8 @uprv_isASCIILetter_77(i8 noundef signext %87)
  %.not8.i33 = icmp eq i8 %88, 0
  br i1 %.not8.i33, label %_Z27ultag_isUnicodeLocaleKey_77PKci.exit34, label %_Z33ultag_isUnicodeLocaleAttribute_77PKci.exit.sink.split

_Z27ultag_isUnicodeLocaleKey_77PKci.exit34:       ; preds = %85, %81, %76
  br i1 %72, label %89, label %92

89:                                               ; preds = %_Z27ultag_isUnicodeLocaleKey_77PKci.exit34
  %90 = tail call i64 @strlen(ptr noundef nonnull readonly dereferenceable(1) %1) #20
  %91 = trunc i64 %90 to i32
  br label %92

92:                                               ; preds = %89, %_Z27ultag_isUnicodeLocaleKey_77PKci.exit34
  %.08.i.i35 = phi i32 [ %91, %89 ], [ %2, %_Z27ultag_isUnicodeLocaleKey_77PKci.exit34 ]
  %93 = add i32 %.08.i.i35, -3
  %or.cond.i.i36 = icmp ult i32 %93, 6
  br i1 %or.cond.i.i36, label %94, label %_Z33ultag_isUnicodeLocaleAttribute_77PKci.exit

94:                                               ; preds = %92
  %wide.trip.count.i.i.i38 = zext nneg i32 %.08.i.i35 to i64
  br label %95

95:                                               ; preds = %103, %94
  %indvars.iv.i.i.i39 = phi i64 [ 0, %94 ], [ %indvars.iv.next.i.i.i41, %103 ]
  %96 = getelementptr inbounds nuw i8, ptr %1, i64 %indvars.iv.i.i.i39
  %97 = load i8, ptr %96, align 1, !tbaa !15
  %98 = tail call noundef signext i8 @uprv_isASCIILetter_77(i8 noundef signext %97)
  %.not.i.i.i40 = icmp eq i8 %98, 0
  br i1 %.not.i.i.i40, label %99, label %103

99:                                               ; preds = %95
  %100 = load i8, ptr %96, align 1, !tbaa !15
  %101 = add i8 %100, -48
  %102 = icmp ult i8 %101, 10
  br i1 %102, label %103, label %_Z33ultag_isUnicodeLocaleAttribute_77PKci.exit

103:                                              ; preds = %99, %95
  %indvars.iv.next.i.i.i41 = add nuw nsw i64 %indvars.iv.i.i.i39, 1
  %exitcond.not.i.i.i42 = icmp eq i64 %indvars.iv.next.i.i.i41, %wide.trip.count.i.i.i38
  br i1 %exitcond.not.i.i.i42, label %_Z33ultag_isUnicodeLocaleAttribute_77PKci.exit, label %95, !llvm.loop !20

_Z33ultag_isUnicodeLocaleAttribute_77PKci.exit.sink.split: ; preds = %70, %85, %19
  %.sink = phi i32 [ 1, %19 ], [ 1, %85 ], [ 2, %70 ]
  store i32 %.sink, ptr %0, align 4, !tbaa !12
  br label %_Z33ultag_isUnicodeLocaleAttribute_77PKci.exit

_Z33ultag_isUnicodeLocaleAttribute_77PKci.exit:   ; preds = %103, %99, %66, %37, %33, %_Z33ultag_isUnicodeLocaleAttribute_77PKci.exit.sink.split, %59, %52, %92, %26, %3
  %.0 = phi i1 [ false, %3 ], [ false, %26 ], [ false, %92 ], [ true, %52 ], [ false, %59 ], [ true, %_Z33ultag_isUnicodeLocaleAttribute_77PKci.exit.sink.split ], [ true, %37 ], [ false, %33 ], [ false, %66 ], [ true, %103 ], [ false, %99 ]
  ret i1 %.0
}